target datalayout = "e-m:e-p270:32:32-p271:32:32-p272:64:64-i64:64-i128:128-f80:128-n8:16:32:64-S128"
target triple = "x86_64-pc-linux-gnu"

%"class.cv::Size_" = type { i32, i32 }

; Function Attrs: mustprogress uwtable
define void @_ZN2cv4UMat6createEiiiNS_14UMatUsageFlagsE(ptr noundef nonnull align 8 dereferenceable(80) %0, i32 noundef %1, i32 noundef %2, i32 noundef %3, i32 noundef %4) #3 align 2 {
  %6 = alloca ptr, align 8
  %7 = alloca i32, align 4
  %8 = alloca i32, align 4
  %9 = alloca i32, align 4
  %10 = alloca i32, align 4
  %11 = alloca [2 x i32], align 4
  store ptr %0, ptr %6, align 8, !tbaa !65
  store i32 %1, ptr %7, align 4, !tbaa !37
  store i32 %2, ptr %8, align 4, !tbaa !37
  store i32 %3, ptr %9, align 4, !tbaa !37
  store i32 %4, ptr %10, align 4, !tbaa !67
  %12 = load ptr, ptr %6, align 8
  call void @llvm.lifetime.start.p0(i64 8, ptr %11) #16
  %13 = load i32, ptr %7, align 4, !tbaa !37
  store i32 %13, ptr %11, align 4, !tbaa !37
  %14 = getelementptr inbounds i32, ptr %11, i64 1
  %15 = load i32, ptr %8, align 4, !tbaa !37
  store i32 %15, ptr %14, align 4, !tbaa !37
  %16 = getelementptr inbounds [2 x i32], ptr %11, i64 0, i64 0
  %17 = load i32, ptr %9, align 4, !tbaa !37
  %18 = load i32, ptr %10, align 4, !tbaa !67
  call void @_ZN2cv4UMat6createEiPKiiNS_14UMatUsageFlagsE(ptr noundef nonnull align 8 dereferenceable(80) %12, i32 noundef 2, ptr noundef %16, i32 noundef %17, i32 noundef %18)
  call void @llvm.lifetime.end.p0(i64 8, ptr %11) #16
  ret void
}

; Function Attrs: mustprogress uwtable
define void @_ZN2cv4UMat6createENS_5Size_IiEEiNS_14UMatUsageFlagsE(ptr noundef nonnull align 8 dereferenceable(80) %0, i64 %1, i32 noundef %2, i32 noundef %3) #3 align 2 {
  %5 = alloca %"class.cv::Size_", align 4
  %6 = alloca ptr, align 8
  %7 = alloca i32, align 4
  %8 = alloca i32, align 4
  store i64 %1, ptr %5, align 4
  store ptr %0, ptr %6, align 8, !tbaa !65
  store i32 %2, ptr %7, align 4, !tbaa !37
  store i32 %3, ptr %8, align 4, !tbaa !67
  %9 = load ptr, ptr %6, align 8
  %10 = getelementptr inbounds nuw %"class.cv::Size_", ptr %5, i32 0, i32 1
  %11 = load i32, ptr %10, align 4, !tbaa !91
  %12 = getelementptr inbounds nuw %"class.cv::Size_", ptr %5, i32 0, i32 0
  %13 = load i32, ptr %12, align 4, !tbaa !93
  %14 = load i32, ptr %7, align 4, !tbaa !37
  %15 = load i32, ptr %8, align 4, !tbaa !67
  call void @_ZN2cv4UMat6createEiiiNS_14UMatUsageFlagsE(ptr noundef nonnull align 8 dereferenceable(80) %9, i32 noundef %11, i32 noundef %13, i32 noundef %14, i32 noundef %15)
  ret void
}