; Function Attrs: mustprogress uwtable
define void @_ZN2cv4UMat6createENS_5Size_IiEEiNS_14UMatUsageFlagsE(ptr noundef nonnull align 8 dereferenceable(80) %0, i64 %1, i32 noundef %2, i32 noundef %3) local_unnamed_addr #4 align 2 {
  %5 = alloca [2 x i32], align 4
  %.sroa.0.0.extract.trunc = trunc i64 %1 to i32
  %.sroa.2.0.extract.shift = lshr i64 %1, 32
  %.sroa.2.0.extract.trunc = trunc nuw i64 %.sroa.2.0.extract.shift to i32
  call void @llvm.lifetime.start.p0(i64 8, ptr nonnull %5) #25
  store i32 %.sroa.2.0.extract.trunc, ptr %5, align 4, !tbaa !28
  %6 = getelementptr inbounds nuw i8, ptr %5, i64 4
  store i32 %.sroa.0.0.extract.trunc, ptr %6, align 4, !tbaa !28
  call void @_ZN2cv4UMat6createEiPKiiNS_14UMatUsageFlagsE(ptr noundef nonnull align 8 dereferenceable(80) %0, i32 noundef 2, ptr noundef nonnull %5, i32 noundef %2, i32 noundef %3)
  call void @llvm.lifetime.end.p0(i64 8, ptr nonnull %5) #25
  ret void
}